; Function Attrs: null_pointer_is_valid sspstrong uwtable
define internal i32 @IWbemLevel1Login_dissect_EstablishPosition_request(ptr noundef %0, i32 noundef %1, ptr noundef %2, ptr noundef %3, ptr noundef initializes((72, 80)) %4, ptr noundef %5) #0 {
  %7 = getelementptr inbounds nuw i8, ptr %4, i64 72
  store ptr @.str.50, ptr %7, align 8
  %8 = load i32, ptr @hf_IWbemLevel1Login_EstablishPosition_orpcthis, align 4
  %9 = tail call ptr @proto_tree_add_item(ptr noundef %3, i32 noundef %8, ptr noundef %0, i32 noundef %1, i32 noundef 0, i32 noundef 0)
  %10 = load i32, ptr @ett_IWbemLevel1Login_EstablishPosition_orpcthis, align 4
  %11 = tail call ptr @proto_item_add_subtree(ptr noundef %9, i32 noundef %10)
  %12 = tail call i32 @dissect_dcom_this(ptr noundef %0, i32 noundef %1, ptr noundef %2, ptr noundef %11, ptr noundef %4, ptr noundef %5)
  %13 = tail call i32 @dissect_deferred_pointers(ptr noundef %2, ptr noundef %0, i32 noundef %12, ptr noundef %4, ptr noundef %5)
  %14 = load i32, ptr @hf_IWbemLevel1Login_EstablishPosition_reserved1, align 4
  %15 = tail call i32 @dissect_ndr_toplevel_pointer(ptr noundef %0, i32 noundef %13, ptr noundef %2, ptr noundef %3, ptr noundef %4, ptr noundef %5, ptr noundef nonnull @IWbemLevel1Login_dissect_element_EstablishPosition_reserved1_, i32 noundef 2, ptr noundef nonnull @.str.57, i32 noundef %14)
  %16 = tail call i32 @dissect_deferred_pointers(ptr noundef %2, ptr noundef %0, i32 noundef %15, ptr noundef %4, ptr noundef %5)
  %17 = load i32, ptr @hf_IWbemLevel1Login_EstablishPosition_reserved2, align 4
  %18 = tail call i32 @PIDL_dissect_uint32(ptr noundef %0, i32 noundef %16, ptr noundef %2, ptr noundef %3, ptr noundef %4, ptr noundef %5, i32 noundef %17, i32 noundef 0)
  %19 = tail call i32 @dissect_deferred_pointers(ptr noundef %2, ptr noundef %0, i32 noundef %18, ptr noundef %4, ptr noundef %5)
  ret i32 %19
}